target datalayout = "e-m:e-p270:32:32-p271:32:32-p272:64:64-i64:64-i128:128-f80:128-n8:16:32:64-S128"
target triple = "x86_64-unknown-linux-gnu"

%"class.google::protobuf::internal::InternalMetadata" = type { i64 }
%"class.google::protobuf::internal::HasBits" = type { [1 x i32] }
%"class.google::protobuf::internal::CachedSize" = type { i32 }
%"struct.google::protobuf::internal::ArenaStringPtr" = type { %"class.google::protobuf::internal::TaggedStringPtr" }
%"class.google::protobuf::internal::TaggedStringPtr" = type { ptr }
%"class.google::protobuf::compiler::Version" = type { %"class.google::protobuf::Message", %union.anon }
%"class.google::protobuf::Message" = type { %"class.google::protobuf::MessageLite" }
%"class.google::protobuf::MessageLite" = type { ptr, %"class.google::protobuf::internal::InternalMetadata" }
%union.anon = type { %"struct.google::protobuf::compiler::Version::Impl_" }
%"struct.google::protobuf::compiler::Version::Impl_" = type <{ %"class.google::protobuf::internal::HasBits", %"class.google::protobuf::internal::CachedSize", %"struct.google::protobuf::internal::ArenaStringPtr", i32, i32, i32, [4 x i8] }>
%"class.absl::lts_20230802::log_internal::NullStream" = type { i8 }

; Function Attrs: mustprogress nounwind uwtable
define linkonce_odr void @_ZSt4swapIcENSt9enable_ifIXsr6__and_ISt6__not_ISt15__is_tuple_likeIT_EESt21is_move_constructibleIS3_ESt18is_move_assignableIS3_EEE5valueEvE4typeERS3_SC_(ptr noundef nonnull align 1 dereferenceable(1) %__a, ptr noundef nonnull align 1 dereferenceable(1) %__b) #5 comdat {
entry:
  %__a.addr = alloca ptr, align 8
  %__b.addr = alloca ptr, align 8
  %__tmp = alloca i8, align 1
  store ptr %__a, ptr %__a.addr, align 8
  store ptr %__b, ptr %__b.addr, align 8
  %0 = load ptr, ptr %__a.addr, align 8
  %1 = load i8, ptr %0, align 1
  store i8 %1, ptr %__tmp, align 1
  %2 = load ptr, ptr %__b.addr, align 8
  %3 = load i8, ptr %2, align 1
  %4 = load ptr, ptr %__a.addr, align 8
  store i8 %3, ptr %4, align 1
  %5 = load i8, ptr %__tmp, align 1
  %6 = load ptr, ptr %__b.addr, align 8
  store i8 %5, ptr %6, align 1
  ret void
}

; Function Attrs: mustprogress nounwind uwtable
define linkonce_odr void @_ZSt9iter_swapIPcS0_EvT_T0_(ptr noundef %__a, ptr noundef %__b) #5 comdat {
entry:
  %__a.addr = alloca ptr, align 8
  %__b.addr = alloca ptr, align 8
  store ptr %__a, ptr %__a.addr, align 8
  store ptr %__b, ptr %__b.addr, align 8
  %0 = load ptr, ptr %__a.addr, align 8
  %1 = load ptr, ptr %__b.addr, align 8
  call void @_ZSt4swapIcENSt9enable_ifIXsr6__and_ISt6__not_ISt15__is_tuple_likeIT_EESt21is_move_constructibleIS3_ESt18is_move_assignableIS3_EEE5valueEvE4typeERS3_SC_(ptr noundef nonnull align 1 dereferenceable(1) %0, ptr noundef nonnull align 1 dereferenceable(1) %1) #3
  ret void
}

; Function Attrs: mustprogress uwtable
define linkonce_odr noundef ptr @_ZSt11swap_rangesIPcS0_ET0_T_S2_S1_(ptr noundef %__first1, ptr noundef %__last1, ptr noundef %__first2) #4 comdat {
entry:
  %__first1.addr = alloca ptr, align 8
  %__last1.addr = alloca ptr, align 8
  %__first2.addr = alloca ptr, align 8
  store ptr %__first1, ptr %__first1.addr, align 8
  store ptr %__last1, ptr %__last1.addr, align 8
  store ptr %__first2, ptr %__first2.addr, align 8
  br label %for.cond

for.cond:                                         ; preds = %for.inc, %entry
  %0 = load ptr, ptr %__first1.addr, align 8
  %1 = load ptr, ptr %__last1.addr, align 8
  %cmp = icmp ne ptr %0, %1
  br i1 %cmp, label %for.body, label %for.end

for.body:                                         ; preds = %for.cond
  %2 = load ptr, ptr %__first1.addr, align 8
  %3 = load ptr, ptr %__first2.addr, align 8
  call void @_ZSt9iter_swapIPcS0_EvT_T0_(ptr noundef %2, ptr noundef %3)
  br label %for.inc

for.inc:                                          ; preds = %for.body
  %4 = load ptr, ptr %__first1.addr, align 8
  %incdec.ptr = getelementptr inbounds i8, ptr %4, i32 1
  store ptr %incdec.ptr, ptr %__first1.addr, align 8
  %5 = load ptr, ptr %__first2.addr, align 8
  %incdec.ptr1 = getelementptr inbounds i8, ptr %5, i32 1
  store ptr %incdec.ptr1, ptr %__first2.addr, align 8
  br label %for.cond, !llvm.loop !49

for.end:                                          ; preds = %for.cond
  %6 = load ptr, ptr %__first2.addr, align 8
  ret ptr %6
}

; Function Attrs: mustprogress nounwind uwtable
define linkonce_odr hidden noundef ptr @_ZNK6google8protobuf8internal16InternalMetadata8PtrValueINS0_5ArenaEEEPT_v(ptr noundef nonnull align 8 dereferenceable(8) %this) #5 comdat align 2 {
entry:
  %this.addr = alloca ptr, align 8
  store ptr %this, ptr %this.addr, align 8
  %this1 = load ptr, ptr %this.addr, align 8
  %ptr_ = getelementptr inbounds %"class.google::protobuf::internal::InternalMetadata", ptr %this1, i32 0, i32 0
  %0 = load i64, ptr %ptr_, align 8
  %and = and i64 %0, -2
  %1 = inttoptr i64 %and to ptr
  ret ptr %1
}

; Function Attrs: mustprogress nounwind uwtable
define linkonce_odr hidden noundef ptr @_ZNK6google8protobuf8internal16InternalMetadata8PtrValueINS2_13ContainerBaseEEEPT_v(ptr noundef nonnull align 8 dereferenceable(8) %this) #5 comdat align 2 {
entry:
  %this.addr = alloca ptr, align 8
  store ptr %this, ptr %this.addr, align 8
  %this1 = load ptr, ptr %this.addr, align 8
  %ptr_ = getelementptr inbounds %"class.google::protobuf::internal::InternalMetadata", ptr %this1, i32 0, i32 0
  %0 = load i64, ptr %ptr_, align 8
  %and = and i64 %0, -2
  %1 = inttoptr i64 %and to ptr
  ret ptr %1
}

; Function Attrs: mustprogress uwtable
define linkonce_odr hidden void @_ZN6google8protobuf8internal7memswapILm12EEEvPcS3_(ptr noalias noundef %a, ptr noalias noundef %b) #4 comdat {
entry:
  %a.addr = alloca ptr, align 8
  %b.addr = alloca ptr, align 8
  store ptr %a, ptr %a.addr, align 8
  store ptr %b, ptr %b.addr, align 8
  %0 = load ptr, ptr %a.addr, align 8
  %1 = load ptr, ptr %a.addr, align 8
  %add.ptr = getelementptr inbounds i8, ptr %1, i64 12
  %2 = load ptr, ptr %b.addr, align 8
  %call = call noundef ptr @_ZSt11swap_rangesIPcS0_ET0_T_S2_S1_(ptr noundef %0, ptr noundef %add.ptr, ptr noundef %2)
  ret void
}

; Function Attrs: mustprogress nounwind uwtable
define linkonce_odr hidden void @_ZSt4swapIN6google8protobuf8internal15TaggedStringPtrEENSt9enable_ifIXsr6__and_ISt6__not_ISt15__is_tuple_likeIT_EESt21is_move_constructibleIS7_ESt18is_move_assignableIS7_EEE5valueEvE4typeERS7_SG_(ptr noundef nonnull align 8 dereferenceable(8) %__a, ptr noundef nonnull align 8 dereferenceable(8) %__b) #5 comdat {
entry:
  %__a.addr = alloca ptr, align 8
  %__b.addr = alloca ptr, align 8
  %__tmp = alloca %"class.google::protobuf::internal::TaggedStringPtr", align 8
  store ptr %__a, ptr %__a.addr, align 8
  store ptr %__b, ptr %__b.addr, align 8
  %0 = load ptr, ptr %__a.addr, align 8
  call void @llvm.memcpy.p0.p0.i64(ptr align 8 %__tmp, ptr align 8 %0, i64 8, i1 false)
  %1 = load ptr, ptr %__b.addr, align 8
  %2 = load ptr, ptr %__a.addr, align 8
  call void @llvm.memcpy.p0.p0.i64(ptr align 8 %2, ptr align 8 %1, i64 8, i1 false)
  %3 = load ptr, ptr %__b.addr, align 8
  call void @llvm.memcpy.p0.p0.i64(ptr align 8 %3, ptr align 8 %__tmp, i64 8, i1 false)
  ret void
}

; Function Attrs: mustprogress nounwind uwtable
define linkonce_odr void @_ZSt4swapIjENSt9enable_ifIXsr6__and_ISt6__not_ISt15__is_tuple_likeIT_EESt21is_move_constructibleIS3_ESt18is_move_assignableIS3_EEE5valueEvE4typeERS3_SC_(ptr noundef nonnull align 4 dereferenceable(4) %__a, ptr noundef nonnull align 4 dereferenceable(4) %__b) #5 comdat {
entry:
  %__a.addr = alloca ptr, align 8
  %__b.addr = alloca ptr, align 8
  %__tmp = alloca i32, align 4
  store ptr %__a, ptr %__a.addr, align 8
  store ptr %__b, ptr %__b.addr, align 8
  %0 = load ptr, ptr %__a.addr, align 8
  %1 = load i32, ptr %0, align 4
  store i32 %1, ptr %__tmp, align 4
  %2 = load ptr, ptr %__b.addr, align 8
  %3 = load i32, ptr %2, align 4
  %4 = load ptr, ptr %__a.addr, align 8
  store i32 %3, ptr %4, align 4
  %5 = load i32, ptr %__tmp, align 4
  %6 = load ptr, ptr %__b.addr, align 8
  store i32 %5, ptr %6, align 4
  ret void
}

; Function Attrs: mustprogress nounwind uwtable
define linkonce_odr void @_ZSt4swapIlENSt9enable_ifIXsr6__and_ISt6__not_ISt15__is_tuple_likeIT_EESt21is_move_constructibleIS3_ESt18is_move_assignableIS3_EEE5valueEvE4typeERS3_SC_(ptr noundef nonnull align 8 dereferenceable(8) %__a, ptr noundef nonnull align 8 dereferenceable(8) %__b) #5 comdat {
entry:
  %__a.addr = alloca ptr, align 8
  %__b.addr = alloca ptr, align 8
  %__tmp = alloca i64, align 8
  store ptr %__a, ptr %__a.addr, align 8
  store ptr %__b, ptr %__b.addr, align 8
  %0 = load ptr, ptr %__a.addr, align 8
  %1 = load i64, ptr %0, align 8
  store i64 %1, ptr %__tmp, align 8
  %2 = load ptr, ptr %__b.addr, align 8
  %3 = load i64, ptr %2, align 8
  %4 = load ptr, ptr %__a.addr, align 8
  store i64 %3, ptr %4, align 8
  %5 = load i64, ptr %__tmp, align 8
  %6 = load ptr, ptr %__b.addr, align 8
  store i64 %5, ptr %6, align 8
  ret void
}

; Function Attrs: mustprogress nounwind uwtable
define linkonce_odr hidden noundef nonnull align 1 dereferenceable(1) ptr @_ZN4absl12lts_2023080212log_internal10NullStream14InternalStreamEv(ptr noundef nonnull align 1 dereferenceable(1) %this) #5 comdat align 2 {
entry:
  %this.addr = alloca ptr, align 8
  store ptr %this, ptr %this.addr, align 8
  %this1 = load ptr, ptr %this.addr, align 8
  ret ptr %this1
}

; Function Attrs: mustprogress uwtable
define linkonce_odr hidden noundef ptr @_ZNK6google8protobuf11MessageLite8GetArenaEv(ptr noundef nonnull align 8 dereferenceable(16) %this) #4 comdat align 2 {
entry:
  %this.addr.i4.i = alloca ptr, align 8
  %this.addr.i.i = alloca ptr, align 8
  %retval.i = alloca ptr, align 8
  %this.addr.i = alloca ptr, align 8
  %this.addr = alloca ptr, align 8
  store ptr %this, ptr %this.addr, align 8
  %this1 = load ptr, ptr %this.addr, align 8
  %_internal_metadata_ = getelementptr inbounds %"class.google::protobuf::MessageLite", ptr %this1, i32 0, i32 1
  store ptr %_internal_metadata_, ptr %this.addr.i, align 8
  %this1.i = load ptr, ptr %this.addr.i, align 8
  store ptr %this1.i, ptr %this.addr.i.i, align 8
  %this1.i.i = load ptr, ptr %this.addr.i.i, align 8
  store ptr %this1.i.i, ptr %this.addr.i4.i, align 8
  %this1.i5.i = load ptr, ptr %this.addr.i4.i, align 8
  %0 = load i64, ptr %this1.i5.i, align 8
  %and.i.i = and i64 %0, 1
  %tobool.i.i = icmp ne i64 %and.i.i, 0
  br i1 %tobool.i.i, label %if.then.i, label %if.else.i

if.then.i:                                        ; preds = %entry
  %call2.i = call noundef ptr @_ZNK6google8protobuf8internal16InternalMetadata8PtrValueINS2_13ContainerBaseEEEPT_v(ptr noundef nonnull align 8 dereferenceable(8) %this1.i)
  %1 = load ptr, ptr %call2.i, align 8
  store ptr %1, ptr %retval.i, align 8
  br label %_ZNK6google8protobuf8internal16InternalMetadata5arenaEv.exit

if.else.i:                                        ; preds = %entry
  %call3.i = call noundef ptr @_ZNK6google8protobuf8internal16InternalMetadata8PtrValueINS0_5ArenaEEEPT_v(ptr noundef nonnull align 8 dereferenceable(8) %this1.i)
  store ptr %call3.i, ptr %retval.i, align 8
  br label %_ZNK6google8protobuf8internal16InternalMetadata5arenaEv.exit

_ZNK6google8protobuf8internal16InternalMetadata5arenaEv.exit: ; preds = %if.else.i, %if.then.i
  %2 = load ptr, ptr %retval.i, align 8
  ret ptr %2
}

; Function Attrs: mustprogress uwtable
define void @_ZN6google8protobuf8compiler7Version12InternalSwapEPS2_(ptr noundef nonnull align 8 dereferenceable(48) %this, ptr noalias noundef %other) #4 align 2 {
entry:
  %rhs.addr.i = alloca ptr, align 8
  %lhs.addr.i = alloca ptr, align 8
  %arena.addr.i = alloca ptr, align 8
  %this.addr.i14 = alloca ptr, align 8
  %other.addr.i = alloca ptr, align 8
  %this.addr.i9 = alloca ptr, align 8
  %index.addr.i10 = alloca i32, align 4
  %this.addr.i = alloca ptr, align 8
  %index.addr.i = alloca i32, align 4
  %this.addr = alloca ptr, align 8
  %other.addr = alloca ptr, align 8
  %arena = alloca ptr, align 8
  %ref.tmp = alloca %"class.absl::lts_20230802::log_internal::NullStream", align 1
  store ptr %this, ptr %this.addr, align 8
  store ptr %other, ptr %other.addr, align 8
  %this1 = load ptr, ptr %this.addr, align 8
  %call = call noundef ptr @_ZNK6google8protobuf11MessageLite8GetArenaEv(ptr noundef nonnull align 8 dereferenceable(16) %this1)
  store ptr %call, ptr %arena, align 8
  br label %while.cond

while.cond:                                       ; preds = %while.body, %entry
  br i1 false, label %while.body, label %while.end

while.body:                                       ; preds = %while.cond
  %call2 = call noundef nonnull align 1 dereferenceable(1) ptr @_ZN4absl12lts_2023080212log_internal10NullStream14InternalStreamEv(ptr noundef nonnull align 1 dereferenceable(1) %ref.tmp)
  br label %while.cond, !llvm.loop !7

while.end:                                        ; preds = %while.cond
  %_internal_metadata_ = getelementptr inbounds %"class.google::protobuf::MessageLite", ptr %this1, i32 0, i32 1
  %0 = load ptr, ptr %other.addr, align 8
  %_internal_metadata_3 = getelementptr inbounds %"class.google::protobuf::MessageLite", ptr %0, i32 0, i32 1
  call void @llvm.experimental.noalias.scope.decl(metadata !8)
  store ptr %_internal_metadata_, ptr %this.addr.i14, align 8, !noalias !8
  store ptr %_internal_metadata_3, ptr %other.addr.i, align 8, !noalias !8
  %this1.i15 = load ptr, ptr %this.addr.i14, align 8, !noalias !8
  %1 = load ptr, ptr %other.addr.i, align 8, !noalias !8
  call void @_ZSt4swapIlENSt9enable_ifIXsr6__and_ISt6__not_ISt15__is_tuple_likeIT_EESt21is_move_constructibleIS3_ESt18is_move_assignableIS3_EEE5valueEvE4typeERS3_SC_(ptr noundef nonnull align 8 dereferenceable(8) %this1.i15, ptr noundef nonnull align 8 dereferenceable(8) %1) #3
  %2 = getelementptr inbounds %"class.google::protobuf::compiler::Version", ptr %this1, i32 0, i32 1
  %_has_bits_ = getelementptr inbounds %"struct.google::protobuf::compiler::Version::Impl_", ptr %2, i32 0, i32 0
  store ptr %_has_bits_, ptr %this.addr.i9, align 8
  store i32 0, ptr %index.addr.i10, align 4
  %this1.i11 = load ptr, ptr %this.addr.i9, align 8
  %3 = load i32, ptr %index.addr.i10, align 4
  %idxprom.i12 = sext i32 %3 to i64
  %arrayidx.i13 = getelementptr inbounds [1 x i32], ptr %this1.i11, i64 0, i64 %idxprom.i12
  %4 = load ptr, ptr %other.addr, align 8
  %5 = getelementptr inbounds %"class.google::protobuf::compiler::Version", ptr %4, i32 0, i32 1
  %_has_bits_5 = getelementptr inbounds %"struct.google::protobuf::compiler::Version::Impl_", ptr %5, i32 0, i32 0
  store ptr %_has_bits_5, ptr %this.addr.i, align 8
  store i32 0, ptr %index.addr.i, align 4
  %this1.i = load ptr, ptr %this.addr.i, align 8
  %6 = load i32, ptr %index.addr.i, align 4
  %idxprom.i = sext i32 %6 to i64
  %arrayidx.i = getelementptr inbounds [1 x i32], ptr %this1.i, i64 0, i64 %idxprom.i
  call void @_ZSt4swapIjENSt9enable_ifIXsr6__and_ISt6__not_ISt15__is_tuple_likeIT_EESt21is_move_constructibleIS3_ESt18is_move_assignableIS3_EEE5valueEvE4typeERS3_SC_(ptr noundef nonnull align 4 dereferenceable(4) %arrayidx.i13, ptr noundef nonnull align 4 dereferenceable(4) %arrayidx.i) #3
  %7 = getelementptr inbounds %"class.google::protobuf::compiler::Version", ptr %this1, i32 0, i32 1
  %suffix_ = getelementptr inbounds %"struct.google::protobuf::compiler::Version::Impl_", ptr %7, i32 0, i32 2
  %8 = load ptr, ptr %other.addr, align 8
  %9 = getelementptr inbounds %"class.google::protobuf::compiler::Version", ptr %8, i32 0, i32 1
  %suffix_7 = getelementptr inbounds %"struct.google::protobuf::compiler::Version::Impl_", ptr %9, i32 0, i32 2
  %10 = load ptr, ptr %arena, align 8
  store ptr %suffix_, ptr %rhs.addr.i, align 8
  store ptr %suffix_7, ptr %lhs.addr.i, align 8
  store ptr %10, ptr %arena.addr.i, align 8
  %11 = load ptr, ptr %lhs.addr.i, align 8
  %12 = load ptr, ptr %rhs.addr.i, align 8
  call void @_ZSt4swapIN6google8protobuf8internal15TaggedStringPtrEENSt9enable_ifIXsr6__and_ISt6__not_ISt15__is_tuple_likeIT_EESt21is_move_constructibleIS7_ESt18is_move_assignableIS7_EEE5valueEvE4typeERS7_SG_(ptr noundef nonnull align 8 dereferenceable(8) %11, ptr noundef nonnull align 8 dereferenceable(8) %12) #3
  %13 = getelementptr inbounds %"class.google::protobuf::compiler::Version", ptr %this1, i32 0, i32 1
  %major_ = getelementptr inbounds %"struct.google::protobuf::compiler::Version::Impl_", ptr %13, i32 0, i32 3
  %14 = load ptr, ptr %other.addr, align 8
  %15 = getelementptr inbounds %"class.google::protobuf::compiler::Version", ptr %14, i32 0, i32 1
  %major_8 = getelementptr inbounds %"struct.google::protobuf::compiler::Version::Impl_", ptr %15, i32 0, i32 3
  call void @_ZN6google8protobuf8internal7memswapILm12EEEvPcS3_(ptr noundef %major_, ptr noundef %major_8)
  ret void
}