; Function Attrs: mustprogress nofree norecurse nosync nounwind uwtable
define void @_ZN6google8protobuf8compiler7Version12InternalSwapEPS2_(ptr nocapture noundef nonnull align 8 dereferenceable(48) %this, ptr noalias nocapture noundef %other) local_unnamed_addr #11 align 2 {
entry:
  %_internal_metadata_.i = getelementptr inbounds i8, ptr %this, i64 8
  %0 = load i64, ptr %_internal_metadata_.i, align 8
  %_internal_metadata_3 = getelementptr inbounds i8, ptr %other, i64 8
  %1 = load i64, ptr %_internal_metadata_3, align 8
  store i64 %1, ptr %_internal_metadata_.i, align 8
  store i64 %0, ptr %_internal_metadata_3, align 8
  %2 = getelementptr inbounds i8, ptr %this, i64 16
  %3 = getelementptr inbounds i8, ptr %other, i64 16
  %4 = load i32, ptr %2, align 8
  %5 = load i32, ptr %3, align 4
  store i32 %5, ptr %2, align 8
  store i32 %4, ptr %3, align 4
  %suffix_ = getelementptr inbounds i8, ptr %this, i64 24
  %suffix_7 = getelementptr inbounds i8, ptr %other, i64 24
  %__tmp.sroa.0.0.copyload.i = load ptr, ptr %suffix_7, align 8
  %6 = load i64, ptr %suffix_, align 8
  store i64 %6, ptr %suffix_7, align 8
  store ptr %__tmp.sroa.0.0.copyload.i, ptr %suffix_, align 8
  %major_ = getelementptr inbounds i8, ptr %this, i64 32
  %major_8 = getelementptr i8, ptr %other, i64 32
  tail call void @llvm.experimental.noalias.scope.decl(metadata !8)
  tail call void @llvm.experimental.noalias.scope.decl(metadata !11)
  br label %for.body.i.i

for.body.i.i:                                     ; preds = %for.body.i.i, %entry
  %__first2.addr.07.i.i = phi ptr [ %incdec.ptr1.i.i, %for.body.i.i ], [ %major_8, %entry ]
  %__first1.addr.06.i.idx.i = phi i64 [ %__first1.addr.06.i.add.i, %for.body.i.i ], [ 0, %entry ]
  %__first1.addr.06.i.ptr.i = getelementptr inbounds i8, ptr %major_, i64 %__first1.addr.06.i.idx.i
  %7 = load i8, ptr %__first1.addr.06.i.ptr.i, align 1, !alias.scope !8, !noalias !11
  %8 = load i8, ptr %__first2.addr.07.i.i, align 1, !alias.scope !11, !noalias !8
  store i8 %8, ptr %__first1.addr.06.i.ptr.i, align 1, !alias.scope !8, !noalias !11
  store i8 %7, ptr %__first2.addr.07.i.i, align 1, !alias.scope !11, !noalias !8
  %__first1.addr.06.i.add.i = add nuw nsw i64 %__first1.addr.06.i.idx.i, 1
  %incdec.ptr1.i.i = getelementptr inbounds i8, ptr %__first2.addr.07.i.i, i64 1
  %cmp.not.i.i = icmp eq i64 %__first1.addr.06.i.add.i, 12
  br i1 %cmp.not.i.i, label %_ZN6google8protobuf8internal7memswapILm12EEEvPcS3_.exit, label %for.body.i.i, !llvm.loop !13

_ZN6google8protobuf8internal7memswapILm12EEEvPcS3_.exit: ; preds = %for.body.i.i
  ret void
}